Certificate:
    Data:
        Version: 3 (0x2)
        Serial Number: 3 (0x3)
        Signature Algorithm: sha1WithRSAEncryption
        Issuer: C=US, ST=California, O=shakefu/jetconfig, CN=Jacob Alheid/emailAddress=shakefu@gmail.com
        Validity
            Not Before: Aug 18 05:53:51 2015 GMT
            Not After : Aug 16 05:53:51 2020 GMT
        Subject: C=US, ST=California, O=shakefu/jetconfig, CN=IP:127.0.0.1/emailAddress=shakefu@gmail.com
        Subject Public Key Info:
            Public Key Algorithm: rsaEncryption
            RSA Public Key: (1024 bit)
                Modulus (1024 bit):
                    00:f0:37:e6:03:59:ee:7c:b1:fb:64:df:d5:37:70:
                    f5:8e:fe:f2:84:a7:a9:53:f9:f6:61:12:33:ed:38:
                    b2:77:28:d9:09:78:f7:69:91:06:c0:ea:ba:18:f9:
                    ee:fd:cb:c2:70:5c:ce:1f:59:7d:49:e0:af:71:5b:
                    6a:2e:5b:f4:a5:12:53:98:42:a9:09:73:d7:97:9b:
                    3a:62:6e:03:eb:a9:00:b0:bb:0a:69:a9:de:fa:62:
                    3a:af:16:79:1a:d2:4f:c6:ea:6e:91:09:4e:a6:9d:
                    68:82:1d:71:40:2c:3a:11:fe:6d:1b:77:5a:91:ae:
                    f2:4c:12:60:55:1b:d7:5c:bd
                Exponent: 65537 (0x10001)
        X509v3 extensions:
            X509v3 Basic Constraints: 
                CA:FALSE
            Netscape Cert Type: 
                SSL Server
            X509v3 Key Usage: 
                Digital Signature, Key Encipherment
            X509v3 Subject Alternative Name: 
                IP Address:127.0.0.1
            Netscape Comment: 
                OpenSSL Certificate for SSL Server
    Signature Algorithm: sha1WithRSAEncryption
        95:1e:71:01:d6:a4:c6:20:de:b9:4a:a6:1b:15:a0:7d:ac:1f:
        99:00:41:92:f9:72:80:d6:af:ee:e1:80:71:fd:c1:6e:70:c6:
        60:ab:72:6c:b8:c3:3c:4e:46:e3:98:c2:20:cf:96:81:0a:95:
        69:9b:fc:a8:af:94:9a:f2:32:11:4f:e0:d8:f6:2a:ef:31:25:
        57:65:70:d0:91:b4:7b:bc:a7:de:ca:70:3f:da:7e:1a:4c:6d:
        7e:ce:b8:78:a5:75:00:d0:c8:28:3a:1b:19:0e:e7:ab:48:f6:
        3e:2c:aa:89:4d:b4:92:32:3b:7c:71:b5:fc:66:da:fc:ac:8f:
        ec:4c
-----BEGIN CERTIFICATE-----
MIIC1TCCAj6gAwIBAgIBAzANBgkqhkiG9w0BAQUFADB3MQswCQYDVQQGEwJVUzET
MBEGA1UECAwKQ2FsaWZvcm5pYTEaMBgGA1UECgwRc2hha2VmdS9qZXRjb25maWcx
FTATBgNVBAMMDEphY29iIEFsaGVpZDEgMB4GCSqGSIb3DQEJARYRc2hha2VmdUBn
bWFpbC5jb20wHhcNMTUwODE4MDU1MzUxWhcNMjAwODE2MDU1MzUxWjB3MQswCQYD
VQQGEwJVUzETMBEGA1UECAwKQ2FsaWZvcm5pYTEaMBgGA1UECgwRc2hha2VmdS9q
ZXRjb25maWcxFTATBgNVBAMMDElQOjEyNy4wLjAuMTEgMB4GCSqGSIb3DQEJARYR
c2hha2VmdUBnbWFpbC5jb20wgZ8wDQYJKoZIhvcNAQEBBQADgY0AMIGJAoGBAPA3
5gNZ7nyx+2Tf1Tdw9Y7+8oSnqVP59mESM+04snco2Ql492mRBsDquhj57v3LwnBc
zh9ZfUngr3Fbai5b9KUSU5hCqQlz15ebOmJuA+upALC7Cmmp3vpiOq8WeRrST8bq
bpEJTqadaIIdcUAsOhH+bRt3WpGu8kwSYFUb11y9AgMBAAGjcTBvMAkGA1UdEwQC
MAAwEQYJYIZIAYb4QgEBBAQDAgZAMAsGA1UdDwQEAwIFoDAPBgNVHREECDAGhwR/
AAABMDEGCWCGSAGG+EIBDQQkFiJPcGVuU1NMIENlcnRpZmljYXRlIGZvciBTU0wg
U2VydmVyMA0GCSqGSIb3DQEBBQUAA4GBAJUecQHWpMYg3rlKphsVoH2sH5kAQZL5
coDWr+7hgHH9wW5wxmCrcmy4wzxORuOYwiDPloEKlWmb/KivlJryMhFP4Nj2Ku8x
JVdlcNCRtHu8p97KcD/afhpMbX7OuHildQDQyCg6GxkO56tI9j4sqolNtJIyO3xx
tfxm2vysj+xM
-----END CERTIFICATE-----
